; Function Attrs: nounwind uwtable
define internal i64 @weakref_hash(ptr noundef captures(none) %0) #0 {
  %2 = getelementptr inbounds nuw i8, ptr %0, i64 32
  %3 = load i64, ptr %2, align 8, !tbaa !44
  %.not.i = icmp eq i64 %3, -1
  br i1 %.not.i, label %4, label %weakref_hash_lock_held.exit

4:                                                ; preds = %1
  %5 = getelementptr i8, ptr %0, i64 16
  %.val.i = load ptr, ptr %5, align 8, !tbaa !37
  %6 = icmp eq ptr %.val.i, @_Py_NoneStruct
  br i1 %6, label %_PyWeakref_GET_REF.exit.thread.i, label %7

7:                                                ; preds = %4
  %.val.i.i.i = load i32, ptr %.val.i, align 8, !tbaa !42
  %.not.i.i.i = icmp eq i32 %.val.i.i.i, 0
  br i1 %.not.i.i.i, label %_PyWeakref_GET_REF.exit.thread.i, label %8

8:                                                ; preds = %7
  %9 = icmp slt i32 %.val.i.i.i, 0
  br i1 %9, label %_PyWeakref_GET_REF.exit.i, label %10

10:                                               ; preds = %8
  %11 = add nuw i32 %.val.i.i.i, 1
  store i32 %11, ptr %.val.i, align 8, !tbaa !42
  br label %_PyWeakref_GET_REF.exit.i

_PyWeakref_GET_REF.exit.thread.i:                 ; preds = %7, %4
  %12 = load ptr, ptr @PyExc_TypeError, align 8, !tbaa !45
  tail call void @PyErr_SetString(ptr noundef %12, ptr noundef nonnull @.str.10) #6
  br label %weakref_hash_lock_held.exit

_PyWeakref_GET_REF.exit.i:                        ; preds = %10, %8
  %13 = tail call i64 @PyObject_Hash(ptr noundef nonnull %.val.i) #6
  store i64 %13, ptr %2, align 8, !tbaa !44
  %14 = load i32, ptr %.val.i, align 8, !tbaa !42
  %.not.i.i = icmp sgt i32 %14, -1
  br i1 %.not.i.i, label %15, label %Py_DECREF.exit.i

15:                                               ; preds = %_PyWeakref_GET_REF.exit.i
  %16 = add nsw i32 %14, -1
  store i32 %16, ptr %.val.i, align 8, !tbaa !42
  %17 = icmp eq i32 %16, 0
  br i1 %17, label %18, label %Py_DECREF.exit.i

18:                                               ; preds = %15
  tail call void @_Py_Dealloc(ptr noundef nonnull %.val.i) #6
  br label %Py_DECREF.exit.i

Py_DECREF.exit.i:                                 ; preds = %18, %15, %_PyWeakref_GET_REF.exit.i
  %19 = load i64, ptr %2, align 8, !tbaa !44
  br label %weakref_hash_lock_held.exit

weakref_hash_lock_held.exit:                      ; preds = %1, %_PyWeakref_GET_REF.exit.thread.i, %Py_DECREF.exit.i
  %.0.i = phi i64 [ %3, %1 ], [ -1, %_PyWeakref_GET_REF.exit.thread.i ], [ %19, %Py_DECREF.exit.i ]
  ret i64 %.0.i
}